target datalayout = "e-m:e-p270:32:32-p271:32:32-p272:64:64-i64:64-i128:128-f80:128-n8:16:32:64-S128"
target triple = "x86_64-pc-linux-gnu"

%struct._zval_struct = type { %union._zend_value, %union.anon.3, %union.anon.6 }
%union._zend_value = type { i64 }
%union.anon.3 = type { i32 }
%union.anon.6 = type { i32 }
%struct._zend_refcounted_h = type { i32, %union.anon.1 }
%union.anon.1 = type { i32 }
%struct._pdo_stmt_t = type { ptr, ptr, [6 x i8], i16, ptr, ptr, ptr, ptr, i32, i32, %union.anon, ptr, ptr, ptr, i64, ptr, ptr, ptr, %struct._zend_object }
%union.anon = type { %struct.anon.0 }
%struct.anon.0 = type { %struct._zend_fcall_info_cache }
%struct._zend_fcall_info_cache = type { ptr, ptr, ptr, ptr, ptr }
%struct._zend_object = type { %struct._zend_refcounted_h, i32, i32, ptr, ptr, ptr, [1 x %struct._zval_struct] }
%struct._zend_string = type { %struct._zend_refcounted_h, i64, i64, [1 x i8] }
%struct.anon.4 = type { i8, i8, %union.anon.5 }
%union.anon.5 = type { i16 }
%struct._pdo_row_t = type { ptr, %struct._zend_object }

@.str.129 = private unnamed_addr constant [31 x i8] c"Cannot append to PDORow offset\00", align 1

; Function Attrs: alwaysinline nounwind uwtable
define internal i32 @zend_gc_addref(ptr noundef %0) #3 {
  %2 = alloca ptr, align 8
  store ptr %0, ptr %2, align 8, !tbaa !109
  br label %3

3:                                                ; preds = %1
  br label %4

4:                                                ; preds = %3
  %5 = load ptr, ptr %2, align 8, !tbaa !109
  %6 = getelementptr inbounds nuw %struct._zend_refcounted_h, ptr %5, i32 0, i32 0
  %7 = load i32, ptr %6, align 4, !tbaa !111
  %8 = add i32 %7, 1
  store i32 %8, ptr %6, align 4, !tbaa !111
  ret i32 %8
}

; Function Attrs: alwaysinline nounwind uwtable
define internal i32 @zend_gc_delref(ptr noundef %0) #3 {
  %2 = alloca ptr, align 8
  store ptr %0, ptr %2, align 8, !tbaa !109
  %3 = load ptr, ptr %2, align 8, !tbaa !109
  %4 = getelementptr inbounds nuw %struct._zend_refcounted_h, ptr %3, i32 0, i32 0
  %5 = load i32, ptr %4, align 4, !tbaa !111
  %6 = icmp ugt i32 %5, 0
  call void @llvm.assume(i1 %6)
  br label %7

7:                                                ; preds = %1
  br label %8

8:                                                ; preds = %7
  %9 = load ptr, ptr %2, align 8, !tbaa !109
  %10 = getelementptr inbounds nuw %struct._zend_refcounted_h, ptr %9, i32 0, i32 0
  %11 = load i32, ptr %10, align 4, !tbaa !111
  %12 = add i32 %11, -1
  store i32 %12, ptr %10, align 4, !tbaa !111
  ret i32 %12
}

; Function Attrs: alwaysinline nounwind uwtable
define internal i32 @zval_gc_flags(i32 noundef %0) #3 {
  %2 = alloca i32, align 4
  store i32 %0, ptr %2, align 4, !tbaa !26
  %3 = load i32, ptr %2, align 4, !tbaa !26
  %4 = lshr i32 %3, 0
  %5 = and i32 %4, 1008
  ret i32 %5
}

; Function Attrs: alwaysinline nounwind uwtable
define internal ptr @zend_string_copy(ptr noundef %0) #3 {
  %2 = alloca ptr, align 8
  store ptr %0, ptr %2, align 8, !tbaa !39
  %3 = load ptr, ptr %2, align 8, !tbaa !39
  %4 = getelementptr inbounds nuw %struct._zend_string, ptr %3, i32 0, i32 0
  %5 = getelementptr inbounds nuw %struct._zend_refcounted_h, ptr %4, i32 0, i32 1
  %6 = load i32, ptr %5, align 4, !tbaa !45
  %7 = call i32 @zval_gc_flags(i32 noundef %6)
  %8 = and i32 %7, 64
  %9 = icmp ne i32 %8, 0
  br i1 %9, label %14, label %10

10:                                               ; preds = %1
  %11 = load ptr, ptr %2, align 8, !tbaa !39
  %12 = getelementptr inbounds nuw %struct._zend_string, ptr %11, i32 0, i32 0
  %13 = call i32 @zend_gc_addref(ptr noundef %12)
  br label %14

14:                                               ; preds = %10, %1
  %15 = load ptr, ptr %2, align 8, !tbaa !39
  ret ptr %15
}

; Function Attrs: alwaysinline nounwind uwtable
define internal void @zend_string_release_ex(ptr noundef %0, i1 noundef zeroext %1) #3 {
  %3 = alloca ptr, align 8
  %4 = alloca i8, align 1
  store ptr %0, ptr %3, align 8, !tbaa !39
  %5 = zext i1 %1 to i8
  store i8 %5, ptr %4, align 1, !tbaa !53
  %6 = load ptr, ptr %3, align 8, !tbaa !39
  %7 = getelementptr inbounds nuw %struct._zend_string, ptr %6, i32 0, i32 0
  %8 = getelementptr inbounds nuw %struct._zend_refcounted_h, ptr %7, i32 0, i32 1
  %9 = load i32, ptr %8, align 4, !tbaa !45
  %10 = call i32 @zval_gc_flags(i32 noundef %9)
  %11 = and i32 %10, 64
  %12 = icmp ne i32 %11, 0
  br i1 %12, label %27, label %13

13:                                               ; preds = %2
  %14 = load ptr, ptr %3, align 8, !tbaa !39
  %15 = getelementptr inbounds nuw %struct._zend_string, ptr %14, i32 0, i32 0
  %16 = call i32 @zend_gc_delref(ptr noundef %15)
  %17 = icmp eq i32 %16, 0
  br i1 %17, label %18, label %26

18:                                               ; preds = %13
  %19 = load i8, ptr %4, align 1, !tbaa !53, !range !54, !noundef !55
  %20 = trunc i8 %19 to i1
  br i1 %20, label %21, label %23

21:                                               ; preds = %18
  %22 = load ptr, ptr %3, align 8, !tbaa !39
  call void @free(ptr noundef %22) #14
  br label %25

23:                                               ; preds = %18
  %24 = load ptr, ptr %3, align 8, !tbaa !39
  call void @_efree(ptr noundef %24)
  br label %25

25:                                               ; preds = %23, %21
  br label %26

26:                                               ; preds = %25, %13
  br label %27

27:                                               ; preds = %26, %2
  ret void
}

; Function Attrs: alwaysinline nounwind uwtable
define internal ptr @zval_try_get_string(ptr noundef %0) #3 {
  %2 = alloca ptr, align 8
  %3 = alloca ptr, align 8
  %4 = alloca ptr, align 8
  store ptr %0, ptr %3, align 8, !tbaa !47
  %5 = load ptr, ptr %3, align 8, !tbaa !47
  %6 = call zeroext i8 @zval_get_type(ptr noundef %5)
  %7 = zext i8 %6 to i32
  %8 = icmp eq i32 %7, 6
  %9 = xor i1 %8, true
  %10 = xor i1 %9, true
  %11 = zext i1 %10 to i32
  %12 = sext i32 %11 to i64
  %13 = call i64 @llvm.expect.i64(i64 %12, i64 1)
  %14 = icmp ne i64 %13, 0
  br i1 %14, label %15, label %23

15:                                               ; preds = %1
  call void @llvm.lifetime.start.p0(i64 8, ptr %4) #14
  %16 = load ptr, ptr %3, align 8, !tbaa !47
  %17 = getelementptr inbounds nuw %struct._zval_struct, ptr %16, i32 0, i32 0
  %18 = load ptr, ptr %17, align 8, !tbaa !45
  %19 = call ptr @zend_string_copy(ptr noundef %18)
  store ptr %19, ptr %4, align 8, !tbaa !39
  %20 = load ptr, ptr %4, align 8, !tbaa !39
  %21 = icmp ne ptr %20, null
  call void @llvm.assume(i1 %21)
  %22 = load ptr, ptr %4, align 8, !tbaa !39
  store ptr %22, ptr %2, align 8
  call void @llvm.lifetime.end.p0(i64 8, ptr %4) #14
  br label %26

23:                                               ; preds = %1
  %24 = load ptr, ptr %3, align 8, !tbaa !47
  %25 = call ptr @zval_try_get_string_func(ptr noundef %24)
  store ptr %25, ptr %2, align 8
  br label %26

26:                                               ; preds = %23, %15
  %27 = load ptr, ptr %2, align 8
  ret ptr %27
}

; Function Attrs: inlinehint nounwind uwtable
define internal ptr @php_pdo_row_fetch_object(ptr noundef %0) #7 {
  %2 = alloca ptr, align 8
  store ptr %0, ptr %2, align 8, !tbaa !108
  %3 = load ptr, ptr %2, align 8, !tbaa !108
  %4 = getelementptr inbounds i8, ptr %3, i64 -8
  ret ptr %4
}

; Function Attrs: alwaysinline nounwind uwtable
define internal zeroext i8 @zval_get_type(ptr noundef %0) #3 {
  %2 = alloca ptr, align 8
  store ptr %0, ptr %2, align 8, !tbaa !47
  %3 = load ptr, ptr %2, align 8, !tbaa !47
  %4 = getelementptr inbounds nuw %struct._zval_struct, ptr %3, i32 0, i32 1
  %5 = getelementptr inbounds nuw %struct.anon.4, ptr %4, i32 0, i32 0
  %6 = load i8, ptr %5, align 8, !tbaa !45
  ret i8 %6
}

; Function Attrs: nounwind uwtable
define internal ptr @row_dim_read(ptr noundef %0, ptr noundef %1, i32 noundef %2, ptr noundef %3) #0 {
  %5 = alloca ptr, align 8
  %6 = alloca ptr, align 8
  %7 = alloca ptr, align 8
  %8 = alloca i32, align 4
  %9 = alloca ptr, align 8
  %10 = alloca ptr, align 8
  %11 = alloca ptr, align 8
  %12 = alloca ptr, align 8
  %13 = alloca i32, align 4
  %14 = alloca ptr, align 8
  store ptr %0, ptr %6, align 8, !tbaa !108
  store ptr %1, ptr %7, align 8, !tbaa !47
  store i32 %2, ptr %8, align 4, !tbaa !26
  store ptr %3, ptr %9, align 8, !tbaa !47
  %15 = load ptr, ptr %7, align 8, !tbaa !47
  %16 = icmp ne ptr %15, null
  %17 = xor i1 %16, true
  %18 = xor i1 %17, true
  %19 = xor i1 %18, true
  %20 = zext i1 %19 to i32
  %21 = sext i32 %20 to i64
  %22 = call i64 @llvm.expect.i64(i64 %21, i64 0)
  %23 = icmp ne i64 %22, 0
  br i1 %23, label %24, label %25

24:                                               ; preds = %4
  call void (ptr, ptr, ...) @zend_throw_error(ptr noundef null, ptr noundef @.str.129)
  store ptr null, ptr %5, align 8
  br label %80

25:                                               ; preds = %4
  %26 = load ptr, ptr %7, align 8, !tbaa !47
  %27 = call zeroext i8 @zval_get_type(ptr noundef %26)
  %28 = zext i8 %27 to i32
  %29 = icmp eq i32 %28, 4
  br i1 %29, label %30, label %65

30:                                               ; preds = %25
  call void @llvm.lifetime.start.p0(i64 8, ptr %10) #14
  %31 = load ptr, ptr %6, align 8, !tbaa !108
  %32 = call ptr @php_pdo_row_fetch_object(ptr noundef %31)
  store ptr %32, ptr %10, align 8, !tbaa !197
  call void @llvm.lifetime.start.p0(i64 8, ptr %11) #14
  %33 = load ptr, ptr %10, align 8, !tbaa !197
  %34 = getelementptr inbounds nuw %struct._pdo_row_t, ptr %33, i32 0, i32 0
  %35 = load ptr, ptr %34, align 8, !tbaa !199
  store ptr %35, ptr %11, align 8, !tbaa !4
  %36 = load ptr, ptr %11, align 8, !tbaa !4
  %37 = icmp ne ptr %36, null
  call void @llvm.assume(i1 %37)
  br label %38

38:                                               ; preds = %30
  %39 = load ptr, ptr %9, align 8, !tbaa !47
  %40 = getelementptr inbounds nuw %struct._zval_struct, ptr %39, i32 0, i32 1
  store i32 1, ptr %40, align 8, !tbaa !45
  br label %41

41:                                               ; preds = %38
  br label %42

42:                                               ; preds = %41
  %43 = load ptr, ptr %7, align 8, !tbaa !47
  %44 = getelementptr inbounds nuw %struct._zval_struct, ptr %43, i32 0, i32 0
  %45 = load i64, ptr %44, align 8, !tbaa !45
  %46 = icmp sge i64 %45, 0
  br i1 %46, label %47, label %63

47:                                               ; preds = %42
  %48 = load ptr, ptr %7, align 8, !tbaa !47
  %49 = getelementptr inbounds nuw %struct._zval_struct, ptr %48, i32 0, i32 0
  %50 = load i64, ptr %49, align 8, !tbaa !45
  %51 = load ptr, ptr %11, align 8, !tbaa !4
  %52 = getelementptr inbounds nuw %struct._pdo_stmt_t, ptr %51, i32 0, i32 8
  %53 = load i32, ptr %52, align 8, !tbaa !9
  %54 = sext i32 %53 to i64
  %55 = icmp slt i64 %50, %54
  br i1 %55, label %56, label %63

56:                                               ; preds = %47
  %57 = load ptr, ptr %11, align 8, !tbaa !4
  %58 = load ptr, ptr %9, align 8, !tbaa !47
  %59 = load ptr, ptr %7, align 8, !tbaa !47
  %60 = getelementptr inbounds nuw %struct._zval_struct, ptr %59, i32 0, i32 0
  %61 = load i64, ptr %60, align 8, !tbaa !45
  %62 = trunc i64 %61 to i32
  call void @fetch_value(ptr noundef %57, ptr noundef %58, i32 noundef %62, ptr noundef null)
  br label %63

63:                                               ; preds = %56, %47, %42
  %64 = load ptr, ptr %9, align 8, !tbaa !47
  store ptr %64, ptr %5, align 8
  call void @llvm.lifetime.end.p0(i64 8, ptr %11) #14
  call void @llvm.lifetime.end.p0(i64 8, ptr %10) #14
  br label %80

65:                                               ; preds = %25
  call void @llvm.lifetime.start.p0(i64 8, ptr %12) #14
  %66 = load ptr, ptr %7, align 8, !tbaa !47
  %67 = call ptr @zval_try_get_string(ptr noundef %66)
  store ptr %67, ptr %12, align 8, !tbaa !39
  %68 = load ptr, ptr %12, align 8, !tbaa !39
  %69 = icmp ne ptr %68, null
  br i1 %69, label %71, label %70

70:                                               ; preds = %65
  store ptr null, ptr %5, align 8
  store i32 1, ptr %13, align 4
  br label %79

71:                                               ; preds = %65
  call void @llvm.lifetime.start.p0(i64 8, ptr %14) #14
  %72 = load ptr, ptr %6, align 8, !tbaa !108
  %73 = load ptr, ptr %12, align 8, !tbaa !39
  %74 = load i32, ptr %8, align 4, !tbaa !26
  %75 = load ptr, ptr %9, align 8, !tbaa !47
  %76 = call ptr @row_prop_read(ptr noundef %72, ptr noundef %73, i32 noundef %74, ptr noundef null, ptr noundef %75)
  store ptr %76, ptr %14, align 8, !tbaa !47
  %77 = load ptr, ptr %12, align 8, !tbaa !39
  call void @zend_string_release_ex(ptr noundef %77, i1 noundef zeroext false)
  %78 = load ptr, ptr %14, align 8, !tbaa !47
  store ptr %78, ptr %5, align 8
  store i32 1, ptr %13, align 4
  call void @llvm.lifetime.end.p0(i64 8, ptr %14) #14
  br label %79

79:                                               ; preds = %71, %70
  call void @llvm.lifetime.end.p0(i64 8, ptr %12) #14
  br label %80

80:                                               ; preds = %79, %63, %24
  %81 = load ptr, ptr %5, align 8
  ret ptr %81
}