; Function Attrs: nounwind uwtable
define internal ptr @row_dim_read(ptr noundef readonly captures(none) %0, ptr noundef %1, i32 noundef %2, ptr noundef %3) #0 {
  %.not = icmp eq ptr %1, null
  br i1 %.not, label %5, label %6, !prof !43

5:                                                ; preds = %4
  tail call void (ptr, ptr, ...) @zend_throw_error(ptr noundef null, ptr noundef nonnull @.str.129) #17
  br label %zend_string_release_ex.exit

6:                                                ; preds = %4
  %7 = getelementptr inbounds nuw i8, ptr %1, i64 8
  %8 = load i8, ptr %7, align 8, !tbaa !37
  switch i8 %8, label %zval_try_get_string.exit [
    i8 4, label %9
    i8 6, label %22
  ], !prof !188

9:                                                ; preds = %6
  %10 = getelementptr inbounds i8, ptr %0, i64 -8
  %11 = load ptr, ptr %10, align 8, !tbaa !112, !nonnull !40, !noundef !40
  %12 = getelementptr inbounds nuw i8, ptr %3, i64 8
  store i32 1, ptr %12, align 8, !tbaa !37
  %13 = load i64, ptr %1, align 8, !tbaa !37
  %14 = icmp sgt i64 %13, -1
  br i1 %14, label %15, label %zend_string_release_ex.exit

15:                                               ; preds = %9
  %16 = getelementptr inbounds nuw i8, ptr %11, i64 56
  %17 = load i32, ptr %16, align 8, !tbaa !4
  %18 = sext i32 %17 to i64
  %19 = icmp slt i64 %13, %18
  br i1 %19, label %20, label %zend_string_release_ex.exit

20:                                               ; preds = %15
  %21 = trunc nuw nsw i64 %13 to i32
  tail call fastcc void @fetch_value(ptr noundef nonnull %11, ptr noundef nonnull %3, i32 noundef %21, ptr noundef null)
  br label %zend_string_release_ex.exit

22:                                               ; preds = %6
  %23 = load ptr, ptr %1, align 8, !tbaa !37
  %24 = getelementptr inbounds nuw i8, ptr %23, i64 4
  %25 = load i32, ptr %24, align 4, !tbaa !37
  %26 = and i32 %25, 64
  %.not.i.i = icmp eq i32 %26, 0
  br i1 %.not.i.i, label %27, label %zval_try_get_string.exit.thread

27:                                               ; preds = %22
  %28 = load i32, ptr %23, align 4, !tbaa !38
  %29 = add i32 %28, 1
  store i32 %29, ptr %23, align 4, !tbaa !38
  br label %zval_try_get_string.exit.thread

zval_try_get_string.exit:                         ; preds = %6
  %30 = tail call ptr @zval_try_get_string_func(ptr noundef nonnull %1) #17
  %.not23 = icmp eq ptr %30, null
  br i1 %.not23, label %zend_string_release_ex.exit, label %zval_try_get_string.exit.thread

zval_try_get_string.exit.thread:                  ; preds = %27, %22, %zval_try_get_string.exit
  %.0.i26 = phi ptr [ %30, %zval_try_get_string.exit ], [ %23, %22 ], [ %23, %27 ]
  %31 = tail call ptr @row_prop_read(ptr noundef %0, ptr noundef nonnull %.0.i26, i32 noundef %2, ptr noundef null, ptr noundef %3)
  %32 = getelementptr inbounds nuw i8, ptr %.0.i26, i64 4
  %33 = load i32, ptr %32, align 4, !tbaa !37
  %34 = and i32 %33, 64
  %.not.i = icmp eq i32 %34, 0
  br i1 %.not.i, label %35, label %zend_string_release_ex.exit

35:                                               ; preds = %zval_try_get_string.exit.thread
  %36 = load i32, ptr %.0.i26, align 4, !tbaa !38
  %37 = icmp ne i32 %36, 0
  tail call void @llvm.assume(i1 %37)
  %38 = add i32 %36, -1
  store i32 %38, ptr %.0.i26, align 4, !tbaa !38
  %39 = icmp eq i32 %38, 0
  br i1 %39, label %40, label %zend_string_release_ex.exit

40:                                               ; preds = %35
  tail call void @_efree(ptr noundef nonnull %.0.i26) #17
  br label %zend_string_release_ex.exit

zend_string_release_ex.exit:                      ; preds = %40, %35, %zval_try_get_string.exit.thread, %zval_try_get_string.exit, %9, %15, %20, %5
  %.0 = phi ptr [ null, %5 ], [ %3, %20 ], [ %3, %15 ], [ %3, %9 ], [ null, %zval_try_get_string.exit ], [ %31, %zval_try_get_string.exit.thread ], [ %31, %35 ], [ %31, %40 ]
  ret ptr %.0
}